target datalayout = "e-m:e-p270:32:32-p271:32:32-p272:64:64-i64:64-i128:128-f80:128-n8:16:32:64-S128"
target triple = "x86_64-pc-linux-gnu"

%struct.index_state = type { ptr, i32, i32, i32, i32, ptr, ptr, ptr, %struct.cache_time, i8, i32, %struct.hashmap, %struct.hashmap, %struct.object_id, ptr, ptr, ptr, ptr, ptr, ptr, ptr }
%struct.cache_time = type { i32, i32 }
%struct.hashmap = type { ptr, ptr, ptr, i32, i32, i32, i32, i8 }
%struct.object_id = type { [32 x i8], i32 }
%struct.cache_entry = type { %struct.hashmap_entry, %struct.stat_data, i32, i32, i32, i32, i32, %struct.object_id, [0 x i8] }
%struct.hashmap_entry = type { ptr, i32 }
%struct.stat_data = type { %struct.cache_time, %struct.cache_time, i32, i32, i32, i32, i32 }

; Function Attrs: nounwind uwtable
define dso_local i32 @index_name_pos(ptr noundef %0, ptr noundef %1, i32 noundef %2) #0 {
  %4 = alloca ptr, align 8
  %5 = alloca ptr, align 8
  %6 = alloca i32, align 4
  store ptr %0, ptr %4, align 8, !tbaa !4
  store ptr %1, ptr %5, align 8, !tbaa !11
  store i32 %2, ptr %6, align 4, !tbaa !9
  %7 = load ptr, ptr %4, align 8, !tbaa !4
  %8 = load ptr, ptr %5, align 8, !tbaa !11
  %9 = load i32, ptr %6, align 4, !tbaa !9
  %10 = call i32 @index_name_stage_pos(ptr noundef %7, ptr noundef %8, i32 noundef %9, i32 noundef 0, i32 noundef 1)
  ret i32 %10
}

; Function Attrs: nounwind uwtable
define dso_local i32 @index_name_is_other(ptr noundef %0, ptr noundef %1, i32 noundef %2) #0 {
  %4 = alloca i32, align 4
  %5 = alloca ptr, align 8
  %6 = alloca ptr, align 8
  %7 = alloca i32, align 4
  %8 = alloca i32, align 4
  %9 = alloca i32, align 4
  %10 = alloca ptr, align 8
  store ptr %0, ptr %5, align 8, !tbaa !4
  store ptr %1, ptr %6, align 8, !tbaa !11
  store i32 %2, ptr %7, align 4, !tbaa !9
  call void @llvm.lifetime.start.p0(i64 4, ptr %8) #12
  %11 = load i32, ptr %7, align 4, !tbaa !9
  %12 = icmp ne i32 %11, 0
  br i1 %12, label %13, label %25

13:                                               ; preds = %3
  %14 = load ptr, ptr %6, align 8, !tbaa !11
  %15 = load i32, ptr %7, align 4, !tbaa !9
  %16 = sub nsw i32 %15, 1
  %17 = sext i32 %16 to i64
  %18 = getelementptr inbounds i8, ptr %14, i64 %17
  %19 = load i8, ptr %18, align 1, !tbaa !73
  %20 = sext i8 %19 to i32
  %21 = icmp eq i32 %20, 47
  br i1 %21, label %22, label %25

22:                                               ; preds = %13
  %23 = load i32, ptr %7, align 4, !tbaa !9
  %24 = add nsw i32 %23, -1
  store i32 %24, ptr %7, align 4, !tbaa !9
  br label %25

25:                                               ; preds = %22, %13, %3
  %26 = load ptr, ptr %5, align 8, !tbaa !4
  %27 = load ptr, ptr %6, align 8, !tbaa !11
  %28 = load i32, ptr %7, align 4, !tbaa !9
  %29 = call i32 @index_name_pos(ptr noundef %26, ptr noundef %27, i32 noundef %28)
  store i32 %29, ptr %8, align 4, !tbaa !9
  %30 = load i32, ptr %8, align 4, !tbaa !9
  %31 = icmp sle i32 0, %30
  br i1 %31, label %32, label %33

32:                                               ; preds = %25
  store i32 0, ptr %4, align 4
  store i32 1, ptr %9, align 4
  br label %70

33:                                               ; preds = %25
  %34 = load i32, ptr %8, align 4, !tbaa !9
  %35 = sub nsw i32 0, %34
  %36 = sub nsw i32 %35, 1
  store i32 %36, ptr %8, align 4, !tbaa !9
  %37 = load i32, ptr %8, align 4, !tbaa !9
  %38 = load ptr, ptr %5, align 8, !tbaa !4
  %39 = getelementptr inbounds nuw %struct.index_state, ptr %38, i32 0, i32 2
  %40 = load i32, ptr %39, align 4, !tbaa !34
  %41 = icmp ult i32 %37, %40
  br i1 %41, label %42, label %69

42:                                               ; preds = %33
  call void @llvm.lifetime.start.p0(i64 8, ptr %10) #12
  %43 = load ptr, ptr %5, align 8, !tbaa !4
  %44 = getelementptr inbounds nuw %struct.index_state, ptr %43, i32 0, i32 0
  %45 = load ptr, ptr %44, align 8, !tbaa !13
  %46 = load i32, ptr %8, align 4, !tbaa !9
  %47 = sext i32 %46 to i64
  %48 = getelementptr inbounds ptr, ptr %45, i64 %47
  %49 = load ptr, ptr %48, align 8, !tbaa !29
  store ptr %49, ptr %10, align 8, !tbaa !29
  %50 = load ptr, ptr %10, align 8, !tbaa !29
  %51 = getelementptr inbounds nuw %struct.cache_entry, ptr %50, i32 0, i32 5
  %52 = load i32, ptr %51, align 8, !tbaa !9
  %53 = load i32, ptr %7, align 4, !tbaa !9
  %54 = icmp eq i32 %52, %53
  br i1 %54, label %55, label %65

55:                                               ; preds = %42
  %56 = load ptr, ptr %10, align 8, !tbaa !29
  %57 = getelementptr inbounds nuw %struct.cache_entry, ptr %56, i32 0, i32 8
  %58 = getelementptr inbounds [0 x i8], ptr %57, i64 0, i64 0
  %59 = load ptr, ptr %6, align 8, !tbaa !11
  %60 = load i32, ptr %7, align 4, !tbaa !9
  %61 = sext i32 %60 to i64
  %62 = call i32 @memcmp(ptr noundef %58, ptr noundef %59, i64 noundef %61) #13
  %63 = icmp ne i32 %62, 0
  br i1 %63, label %65, label %64

64:                                               ; preds = %55
  store i32 0, ptr %4, align 4
  store i32 1, ptr %9, align 4
  br label %66

65:                                               ; preds = %55, %42
  store i32 0, ptr %9, align 4
  br label %66

66:                                               ; preds = %65, %64
  call void @llvm.lifetime.end.p0(i64 8, ptr %10) #12
  %67 = load i32, ptr %9, align 4
  switch i32 %67, label %70 [
    i32 0, label %68
  ]

68:                                               ; preds = %66
  br label %69

69:                                               ; preds = %68, %33
  store i32 1, ptr %4, align 4
  store i32 1, ptr %9, align 4
  br label %70

70:                                               ; preds = %69, %66, %32
  call void @llvm.lifetime.end.p0(i64 4, ptr %8) #12
  %71 = load i32, ptr %4, align 4
  ret i32 %71
}