; Function Attrs: nounwind uwtable
define dso_local range(i32 0, 2) i32 @index_name_is_other(ptr noundef %0, ptr noundef %1, i32 noundef %2) local_unnamed_addr #0 {
  %.not = icmp eq i32 %2, 0
  br i1 %.not, label %11, label %4

4:                                                ; preds = %3
  %5 = sext i32 %2 to i64
  %6 = getelementptr i8, ptr %1, i64 %5
  %7 = getelementptr i8, ptr %6, i64 -1
  %8 = load i8, ptr %7, align 1, !tbaa !38
  %9 = icmp eq i8 %8, 47
  %10 = sext i1 %9 to i32
  %spec.select = add nsw i32 %2, %10
  br label %11

11:                                               ; preds = %4, %3
  %.020 = phi i32 [ 0, %3 ], [ %spec.select, %4 ]
  %12 = tail call fastcc i32 @index_name_stage_pos(ptr noundef %0, ptr noundef %1, i32 noundef %.020, i32 noundef 0, i32 noundef 1)
  %13 = icmp sgt i32 %12, -1
  br i1 %13, label %30, label %14

14:                                               ; preds = %11
  %15 = xor i32 %12, -1
  %16 = getelementptr inbounds nuw i8, ptr %0, i64 12
  %17 = load i32, ptr %16, align 4, !tbaa !34
  %18 = icmp ugt i32 %17, %15
  br i1 %18, label %19, label %30

19:                                               ; preds = %14
  %20 = load ptr, ptr %0, align 8, !tbaa !4
  %21 = zext nneg i32 %15 to i64
  %22 = getelementptr inbounds nuw ptr, ptr %20, i64 %21
  %23 = load ptr, ptr %22, align 8, !tbaa !25
  %24 = getelementptr inbounds nuw i8, ptr %23, i64 64
  %25 = load i32, ptr %24, align 8, !tbaa !32
  %26 = icmp eq i32 %25, %.020
  br i1 %26, label %27, label %.critedge

27:                                               ; preds = %19
  %28 = getelementptr inbounds nuw i8, ptr %23, i64 108
  %29 = sext i32 %.020 to i64
  %bcmp = tail call i32 @bcmp(ptr nonnull %28, ptr %1, i64 %29)
  %.not24 = icmp eq i32 %bcmp, 0
  br i1 %.not24, label %30, label %.critedge

.critedge:                                        ; preds = %27, %19
  br label %30

30:                                               ; preds = %14, %.critedge, %27, %11
  %.0 = phi i32 [ 0, %11 ], [ 0, %27 ], [ 1, %.critedge ], [ 1, %14 ]
  ret i32 %.0
}